target datalayout = "e-m:e-p270:32:32-p271:32:32-p272:64:64-i64:64-i128:128-f80:128-n8:16:32:64-S128"
target triple = "x86_64-pc-linux-gnu"

%"class.bit_matrix::col_iterator" = type <{ %"class.bit_matrix::row", i32, [4 x i8] }>
%"class.bit_matrix::row" = type { ptr, ptr }
%class.bit_matrix = type { %class.region, i32, i32, %class.ptr_vector }
%class.region = type { ptr, ptr, ptr, ptr, ptr }
%class.ptr_vector = type { %class.vector }
%class.vector = type { ptr }

; Function Attrs: mustprogress uwtable
define hidden void @_ZN10bit_matrix12col_iterator4nextEv(ptr noundef nonnull align 8 dereferenceable(20) %0) #4 align 2 {
  %2 = alloca ptr, align 8
  store ptr %0, ptr %2, align 8, !tbaa !8
  %3 = load ptr, ptr %2, align 8
  %4 = getelementptr inbounds nuw %"class.bit_matrix::col_iterator", ptr %3, i32 0, i32 1
  %5 = load i32, ptr %4, align 8, !tbaa !31
  %6 = add i32 %5, 1
  store i32 %6, ptr %4, align 8, !tbaa !31
  br label %7

7:                                                ; preds = %58, %1
  %8 = getelementptr inbounds nuw %"class.bit_matrix::col_iterator", ptr %3, i32 0, i32 1
  %9 = load i32, ptr %8, align 8, !tbaa !31
  %10 = getelementptr inbounds nuw %"class.bit_matrix::col_iterator", ptr %3, i32 0, i32 0
  %11 = getelementptr inbounds nuw %"class.bit_matrix::row", ptr %10, i32 0, i32 0
  %12 = load ptr, ptr %11, align 8, !tbaa !33
  %13 = getelementptr inbounds nuw %class.bit_matrix, ptr %12, i32 0, i32 1
  %14 = load i32, ptr %13, align 8, !tbaa !21
  %15 = icmp ult i32 %9, %14
  br i1 %15, label %16, label %22

16:                                               ; preds = %7
  %17 = getelementptr inbounds nuw %"class.bit_matrix::col_iterator", ptr %3, i32 0, i32 0
  %18 = getelementptr inbounds nuw %"class.bit_matrix::col_iterator", ptr %3, i32 0, i32 1
  %19 = load i32, ptr %18, align 8, !tbaa !31
  %20 = call noundef zeroext i1 @_ZNK10bit_matrix3rowixEj(ptr noundef nonnull align 8 dereferenceable(16) %17, i32 noundef %19)
  %21 = xor i1 %20, true
  br label %22

22:                                               ; preds = %16, %7
  %23 = phi i1 [ false, %7 ], [ %21, %16 ]
  br i1 %23, label %24, label %62

24:                                               ; preds = %22
  br label %25

25:                                               ; preds = %54, %24
  %26 = getelementptr inbounds nuw %"class.bit_matrix::col_iterator", ptr %3, i32 0, i32 1
  %27 = load i32, ptr %26, align 8, !tbaa !31
  %28 = urem i32 %27, 64
  %29 = icmp eq i32 %28, 0
  br i1 %29, label %30, label %52

30:                                               ; preds = %25
  %31 = getelementptr inbounds nuw %"class.bit_matrix::col_iterator", ptr %3, i32 0, i32 1
  %32 = load i32, ptr %31, align 8, !tbaa !31
  %33 = add i32 %32, 64
  %34 = getelementptr inbounds nuw %"class.bit_matrix::col_iterator", ptr %3, i32 0, i32 0
  %35 = getelementptr inbounds nuw %"class.bit_matrix::row", ptr %34, i32 0, i32 0
  %36 = load ptr, ptr %35, align 8, !tbaa !33
  %37 = getelementptr inbounds nuw %class.bit_matrix, ptr %36, i32 0, i32 1
  %38 = load i32, ptr %37, align 8, !tbaa !21
  %39 = icmp ult i32 %33, %38
  br i1 %39, label %40, label %52

40:                                               ; preds = %30
  %41 = getelementptr inbounds nuw %"class.bit_matrix::col_iterator", ptr %3, i32 0, i32 0
  %42 = getelementptr inbounds nuw %"class.bit_matrix::row", ptr %41, i32 0, i32 1
  %43 = load ptr, ptr %42, align 8, !tbaa !34
  %44 = getelementptr inbounds nuw %"class.bit_matrix::col_iterator", ptr %3, i32 0, i32 1
  %45 = load i32, ptr %44, align 8, !tbaa !31
  %46 = lshr i32 %45, 6
  %47 = zext i32 %46 to i64
  %48 = getelementptr inbounds nuw i64, ptr %43, i64 %47
  %49 = load i64, ptr %48, align 8, !tbaa !35
  %50 = icmp ne i64 %49, 0
  %51 = xor i1 %50, true
  br label %52

52:                                               ; preds = %40, %30, %25
  %53 = phi i1 [ false, %30 ], [ false, %25 ], [ %51, %40 ]
  br i1 %53, label %54, label %58

54:                                               ; preds = %52
  %55 = getelementptr inbounds nuw %"class.bit_matrix::col_iterator", ptr %3, i32 0, i32 1
  %56 = load i32, ptr %55, align 8, !tbaa !31
  %57 = add i32 %56, 64
  store i32 %57, ptr %55, align 8, !tbaa !31
  br label %25, !llvm.loop !37

58:                                               ; preds = %52
  %59 = getelementptr inbounds nuw %"class.bit_matrix::col_iterator", ptr %3, i32 0, i32 1
  %60 = load i32, ptr %59, align 8, !tbaa !31
  %61 = add i32 %60, 1
  store i32 %61, ptr %59, align 8, !tbaa !31
  br label %7, !llvm.loop !39

62:                                               ; preds = %22
  ret void
}

; Function Attrs: mustprogress nounwind uwtable
define hidden noundef zeroext i1 @_ZNK10bit_matrix3rowixEj(ptr noundef nonnull align 8 dereferenceable(16) %0, i32 noundef %1) #5 align 2 {
  %3 = alloca ptr, align 8
  %4 = alloca i32, align 4
  store ptr %0, ptr %3, align 8, !tbaa !3
  store i32 %1, ptr %4, align 4, !tbaa !40
  %5 = load ptr, ptr %3, align 8
  %6 = getelementptr inbounds nuw %"class.bit_matrix::row", ptr %5, i32 0, i32 1
  %7 = load ptr, ptr %6, align 8, !tbaa !41
  %8 = load i32, ptr %4, align 4, !tbaa !40
  %9 = lshr i32 %8, 6
  %10 = zext i32 %9 to i64
  %11 = getelementptr inbounds nuw i64, ptr %7, i64 %10
  %12 = load i64, ptr %11, align 8, !tbaa !35
  %13 = load i32, ptr %4, align 4, !tbaa !40
  %14 = and i32 %13, 63
  %15 = zext i32 %14 to i64
  %16 = shl i64 1, %15
  %17 = and i64 %12, %16
  %18 = icmp ne i64 %17, 0
  ret i1 %18
}

; Function Attrs: mustprogress uwtable
define linkonce_odr hidden void @_ZN10bit_matrix12col_iteratorC2ERKNS_3rowEb(ptr noundef nonnull align 8 dereferenceable(20) %0, ptr noundef nonnull align 8 dereferenceable(16) %1, i1 noundef zeroext %2) unnamed_addr #4 comdat align 2 {
  %4 = alloca ptr, align 8
  %5 = alloca ptr, align 8
  %6 = alloca i8, align 1
  store ptr %0, ptr %4, align 8, !tbaa !8
  store ptr %1, ptr %5, align 8, !tbaa !3
  %7 = zext i1 %2 to i8
  store i8 %7, ptr %6, align 1, !tbaa !10
  %8 = load ptr, ptr %4, align 8
  %9 = getelementptr inbounds nuw %"class.bit_matrix::col_iterator", ptr %8, i32 0, i32 0
  %10 = load ptr, ptr %5, align 8, !tbaa !3
  call void @llvm.memcpy.p0.p0.i64(ptr align 8 %9, ptr align 8 %10, i64 16, i1 false), !tbaa.struct !12
  %11 = getelementptr inbounds nuw %"class.bit_matrix::col_iterator", ptr %8, i32 0, i32 1
  %12 = load i8, ptr %6, align 1, !tbaa !10, !range !17, !noundef !18
  %13 = trunc i8 %12 to i1
  br i1 %13, label %14, label %15

14:                                               ; preds = %3
  br label %21

15:                                               ; preds = %3
  %16 = load ptr, ptr %5, align 8, !tbaa !3
  %17 = getelementptr inbounds nuw %"class.bit_matrix::row", ptr %16, i32 0, i32 0
  %18 = load ptr, ptr %17, align 8, !tbaa !19
  %19 = getelementptr inbounds nuw %class.bit_matrix, ptr %18, i32 0, i32 1
  %20 = load i32, ptr %19, align 8, !tbaa !21
  br label %21

21:                                               ; preds = %15, %14
  %22 = phi i32 [ 0, %14 ], [ %20, %15 ]
  store i32 %22, ptr %11, align 8, !tbaa !31
  %23 = load i8, ptr %6, align 1, !tbaa !10, !range !17, !noundef !18
  %24 = trunc i8 %23 to i1
  br i1 %24, label %25, label %31

25:                                               ; preds = %21
  %26 = load ptr, ptr %5, align 8, !tbaa !3
  %27 = getelementptr inbounds nuw %"class.bit_matrix::col_iterator", ptr %8, i32 0, i32 1
  %28 = load i32, ptr %27, align 8, !tbaa !31
  %29 = call noundef zeroext i1 @_ZNK10bit_matrix3rowixEj(ptr noundef nonnull align 8 dereferenceable(16) %26, i32 noundef %28)
  br i1 %29, label %31, label %30

30:                                               ; preds = %25
  call void @_ZN10bit_matrix12col_iterator4nextEv(ptr noundef nonnull align 8 dereferenceable(20) %8)
  br label %31

31:                                               ; preds = %30, %25, %21
  ret void
}

; Function Attrs: mustprogress uwtable
define hidden void @_ZNK10bit_matrix3row5beginEv(ptr dead_on_unwind noalias writable sret(%"class.bit_matrix::col_iterator") align 8 %0, ptr noundef nonnull align 8 dereferenceable(16) %1) #4 align 2 {
  %3 = alloca ptr, align 8
  store ptr %1, ptr %3, align 8, !tbaa !3
  %4 = load ptr, ptr %3, align 8
  call void @_ZN10bit_matrix12col_iteratorC2ERKNS_3rowEb(ptr noundef nonnull align 8 dereferenceable(20) %0, ptr noundef nonnull align 8 dereferenceable(16) %4, i1 noundef zeroext true)
  ret void
}