; Function Attrs: mustprogress nofree norecurse nosync nounwind memory(read, argmem: readwrite, inaccessiblemem: none) uwtable
define hidden void @_ZNK10bit_matrix3row5beginEv(ptr dead_on_unwind noalias writable sret(%"class.bit_matrix::col_iterator") align 8 captures(none) initializes((0, 20)) %0, ptr noundef nonnull readonly align 8 captures(none) dereferenceable(16) %1) local_unnamed_addr #3 align 2 {
  tail call void @llvm.memcpy.p0.p0.i64(ptr noundef nonnull align 8 dereferenceable(20) %0, ptr noundef nonnull align 8 dereferenceable(16) %1, i64 16, i1 false), !tbaa.struct !3
  %3 = getelementptr inbounds nuw i8, ptr %0, i64 16
  store i32 0, ptr %3, align 8, !tbaa !11
  %4 = getelementptr inbounds nuw i8, ptr %1, i64 8
  %5 = load ptr, ptr %4, align 8, !tbaa !15
  %6 = load i64, ptr %5, align 8, !tbaa !16
  %7 = and i64 %6, 1
  %.not.i = icmp eq i64 %7, 0
  br i1 %.not.i, label %8, label %_ZN10bit_matrix12col_iteratorC2ERKNS_3rowEb.exit

8:                                                ; preds = %2
  %9 = load ptr, ptr %0, align 8, !tbaa !18
  %10 = getelementptr inbounds nuw i8, ptr %9, i64 40
  %11 = load i32, ptr %10, align 8, !tbaa !19
  %12 = icmp ugt i32 %11, 1
  br i1 %12, label %.lr.ph17.i.i, label %.sink.split.i

.lr.ph17.i.i:                                     ; preds = %8
  %13 = getelementptr inbounds nuw i8, ptr %0, i64 8
  %14 = load ptr, ptr %13, align 8, !tbaa !15
  br label %15

15:                                               ; preds = %.critedge2.i.i, %.lr.ph17.i.i
  %storemerge16.i.i = phi i32 [ 1, %.lr.ph17.i.i ], [ %storemerge.i.i, %.critedge2.i.i ]
  %16 = lshr i32 %storemerge16.i.i, 6
  %17 = zext nneg i32 %16 to i64
  %18 = getelementptr inbounds nuw i64, ptr %14, i64 %17
  %19 = load i64, ptr %18, align 8, !tbaa !16
  %20 = and i32 %storemerge16.i.i, 63
  %21 = zext nneg i32 %20 to i64
  %22 = shl nuw i64 1, %21
  %23 = and i64 %22, %19
  %.not4.i.i = icmp eq i64 %23, 0
  br i1 %.not4.i.i, label %.preheader.i.i, label %.sink.split.i

.preheader.i.i:                                   ; preds = %15
  %24 = icmp eq i32 %20, 0
  br i1 %24, label %.lr.ph.i.i, label %.critedge2.i.i

.lr.ph.i.i:                                       ; preds = %.preheader.i.i, %28
  %25 = phi i32 [ %26, %28 ], [ %storemerge16.i.i, %.preheader.i.i ]
  %26 = add i32 %25, 64
  %27 = icmp ult i32 %26, %11
  br i1 %27, label %28, label %.critedge2.i.i

28:                                               ; preds = %.lr.ph.i.i
  %29 = lshr exact i32 %25, 6
  %30 = zext nneg i32 %29 to i64
  %31 = getelementptr inbounds nuw i64, ptr %14, i64 %30
  %32 = load i64, ptr %31, align 8, !tbaa !16
  %.not.i.i = icmp eq i64 %32, 0
  br i1 %.not.i.i, label %.lr.ph.i.i, label %.critedge2.i.i

.critedge2.i.i:                                   ; preds = %28, %.lr.ph.i.i, %.preheader.i.i
  %.promoted8.i.i = phi i32 [ %storemerge16.i.i, %.preheader.i.i ], [ %25, %.lr.ph.i.i ], [ %25, %28 ]
  %storemerge.i.i = add i32 %.promoted8.i.i, 1
  %33 = icmp ult i32 %storemerge.i.i, %11
  br i1 %33, label %15, label %.sink.split.i, !llvm.loop !28

.sink.split.i:                                    ; preds = %.critedge2.i.i, %15, %8
  %.sink.i = phi i32 [ 1, %8 ], [ %storemerge.i.i, %.critedge2.i.i ], [ %storemerge16.i.i, %15 ]
  store i32 %.sink.i, ptr %3, align 8, !tbaa !11
  br label %_ZN10bit_matrix12col_iteratorC2ERKNS_3rowEb.exit

_ZN10bit_matrix12col_iteratorC2ERKNS_3rowEb.exit: ; preds = %2, %.sink.split.i
  ret void
}